; Function Attrs: mustprogress nofree norecurse nosync nounwind willreturn memory(argmem: read) uwtable
define hidden { i64, i32 } @_ZNK19JfrCheckpointWriter7contextEv(ptr nocapture noundef nonnull readonly align 8 dereferenceable(73) %0) local_unnamed_addr #2 align 2 {
  %2 = getelementptr inbounds i8, ptr %0, i64 8
  %3 = load ptr, ptr %2, align 8
  %4 = load ptr, ptr %0, align 8
  %5 = ptrtoint ptr %3 to i64
  %6 = ptrtoint ptr %4 to i64
  %7 = sub i64 %5, %6
  %8 = getelementptr inbounds i8, ptr %0, i64 64
  %9 = load i32, ptr %8, align 8
  %.fca.0.insert = insertvalue { i64, i32 } poison, i64 %7, 0
  %.fca.1.insert = insertvalue { i64, i32 } %.fca.0.insert, i32 %9, 1
  ret { i64, i32 } %.fca.1.insert
}